target datalayout = "e-m:e-p270:32:32-p271:32:32-p272:64:64-i64:64-i128:128-f80:128-n8:16:32:64-S128"
target triple = "x86_64-pc-linux-gnu"

@.str.2 = private unnamed_addr constant [7 x i8] c"family\00", align 1
@.str.3 = private unnamed_addr constant [6 x i8] c"level\00", align 1
@.str.4 = private unnamed_addr constant [8 x i8] c"optname\00", align 1
@.str.5 = private unnamed_addr constant [5 x i8] c"data\00", align 1
@sockopt_initialize.rbimpl_id = internal global i64 0, align 8
@sockopt_initialize.rbimpl_id.15 = internal global i64 0, align 8
@sockopt_initialize.rbimpl_id.16 = internal global i64 0, align 8
@sockopt_initialize.rbimpl_id.17 = internal global i64 0, align 8

; Function Attrs: inlinehint nounwind sspstrong willreturn memory(none) uwtable
define internal i64 @RB_INT2FIX(i64 noundef %0) #7 {
  %2 = alloca i64, align 8
  %3 = alloca i64, align 8
  %4 = alloca i64, align 8
  %5 = alloca i64, align 8
  %6 = alloca i64, align 8
  %7 = alloca i64, align 8
  store i64 %0, ptr %2, align 8, !tbaa !10
  call void @llvm.lifetime.start.p0(i64 8, ptr %3) #17
  %8 = load i64, ptr %2, align 8, !tbaa !10
  store i64 %8, ptr %3, align 8, !tbaa !10
  call void @llvm.lifetime.start.p0(i64 8, ptr %4) #17
  %9 = load i64, ptr %3, align 8, !tbaa !10
  %10 = shl i64 %9, 1
  %11 = add i64 %10, 1
  store i64 %11, ptr %4, align 8, !tbaa !10
  call void @llvm.lifetime.start.p0(i64 8, ptr %5) #17
  %12 = load i64, ptr %4, align 8, !tbaa !10
  store i64 %12, ptr %5, align 8, !tbaa !10
  call void @llvm.lifetime.start.p0(i64 8, ptr %6) #17
  %13 = load i64, ptr %5, align 8, !tbaa !10
  store i64 %13, ptr %6, align 8, !tbaa !10
  call void @llvm.lifetime.start.p0(i64 8, ptr %7) #17
  %14 = load i64, ptr %6, align 8, !tbaa !10
  store i64 %14, ptr %7, align 8, !tbaa !10
  %15 = load i64, ptr %7, align 8, !tbaa !10
  call void @llvm.lifetime.end.p0(i64 8, ptr %7) #17
  call void @llvm.lifetime.end.p0(i64 8, ptr %6) #17
  call void @llvm.lifetime.end.p0(i64 8, ptr %5) #17
  call void @llvm.lifetime.end.p0(i64 8, ptr %4) #17
  call void @llvm.lifetime.end.p0(i64 8, ptr %3) #17
  ret i64 %15
}

; Function Attrs: inlinehint nounwind sspstrong willreturn memory(read) uwtable
define internal i64 @rb_intern_const(ptr noundef nonnull %0) #5 {
  %2 = alloca ptr, align 8
  %3 = alloca i64, align 8
  store ptr %0, ptr %2, align 8, !tbaa !19
  call void @llvm.lifetime.start.p0(i64 8, ptr %3) #17
  %4 = load ptr, ptr %2, align 8, !tbaa !19
  %5 = call i64 @strlen(ptr noundef %4) #20
  store i64 %5, ptr %3, align 8, !tbaa !10
  %6 = load ptr, ptr %2, align 8, !tbaa !19
  %7 = load i64, ptr %3, align 8, !tbaa !10
  %8 = call i64 @rb_intern2(ptr noundef %6, i64 noundef %7)
  call void @llvm.lifetime.end.p0(i64 8, ptr %3) #17
  ret i64 %8
}

; Function Attrs: inlinehint nounwind sspstrong uwtable
define internal i64 @rb_int2num_inline(i32 noundef %0) #3 {
  %2 = alloca i64, align 8
  %3 = alloca i32, align 4
  store i32 %0, ptr %3, align 4, !tbaa !6
  %4 = load i32, ptr %3, align 4, !tbaa !6
  %5 = sext i32 %4 to i64
  %6 = icmp slt i64 %5, 4611686018427387904
  br i1 %6, label %7, label %15

7:                                                ; preds = %1
  %8 = load i32, ptr %3, align 4, !tbaa !6
  %9 = sext i32 %8 to i64
  %10 = icmp sge i64 %9, -4611686018427387904
  br i1 %10, label %11, label %15

11:                                               ; preds = %7
  %12 = load i32, ptr %3, align 4, !tbaa !6
  %13 = sext i32 %12 to i64
  %14 = call i64 @RB_INT2FIX(i64 noundef %13) #19
  store i64 %14, ptr %2, align 8
  br label %19

15:                                               ; preds = %7, %1
  %16 = load i32, ptr %3, align 4, !tbaa !6
  %17 = sext i32 %16 to i64
  %18 = call i64 @rb_int2big(i64 noundef %17)
  store i64 %18, ptr %2, align 8
  br label %19

19:                                               ; preds = %15, %11
  %20 = load i64, ptr %2, align 8
  ret i64 %20
}

; Function Attrs: inlinehint nounwind sspstrong memory(argmem: readwrite, inaccessiblemem: readwrite) uwtable
define internal i64 @rbimpl_intern_const(ptr noundef nonnull %0, ptr noundef nonnull %1) #4 {
  %3 = alloca ptr, align 8
  %4 = alloca ptr, align 8
  store ptr %0, ptr %3, align 8, !tbaa !16
  store ptr %1, ptr %4, align 8, !tbaa !19
  br label %5

5:                                                ; preds = %10, %2
  %6 = load ptr, ptr %3, align 8, !tbaa !16
  %7 = load i64, ptr %6, align 8, !tbaa !10
  %8 = icmp ne i64 %7, 0
  %9 = xor i1 %8, true
  br i1 %9, label %10, label %14

10:                                               ; preds = %5
  %11 = load ptr, ptr %4, align 8, !tbaa !19
  %12 = call i64 @rb_intern_const(ptr noundef %11) #20
  %13 = load ptr, ptr %3, align 8, !tbaa !16
  store i64 %12, ptr %13, align 8, !tbaa !10
  br label %5, !llvm.loop !21

14:                                               ; preds = %5
  %15 = load ptr, ptr %3, align 8, !tbaa !16
  %16 = load i64, ptr %15, align 8, !tbaa !10
  ret i64 %16
}

; Function Attrs: nounwind sspstrong uwtable
define internal i64 @sockopt_initialize(i64 noundef %0, i64 noundef %1, i64 noundef %2, i64 noundef %3, i64 noundef %4) #0 {
  %6 = alloca i64, align 8
  %7 = alloca i64, align 8
  %8 = alloca i64, align 8
  %9 = alloca i64, align 8
  %10 = alloca i64, align 8
  %11 = alloca i32, align 4
  %12 = alloca i32, align 4
  %13 = alloca i32, align 4
  %14 = alloca i64, align 8
  %15 = alloca i64, align 8
  %16 = alloca i64, align 8
  %17 = alloca i64, align 8
  store i64 %0, ptr %6, align 8, !tbaa !10
  store i64 %1, ptr %7, align 8, !tbaa !10
  store i64 %2, ptr %8, align 8, !tbaa !10
  store i64 %3, ptr %9, align 8, !tbaa !10
  store i64 %4, ptr %10, align 8, !tbaa !10
  call void @llvm.lifetime.start.p0(i64 4, ptr %11) #17
  %18 = load i64, ptr %7, align 8, !tbaa !10
  %19 = call i32 @rsock_family_arg(i64 noundef %18)
  store i32 %19, ptr %11, align 4, !tbaa !6
  call void @llvm.lifetime.start.p0(i64 4, ptr %12) #17
  %20 = load i32, ptr %11, align 4, !tbaa !6
  %21 = load i64, ptr %8, align 8, !tbaa !10
  %22 = call i32 @rsock_level_arg(i32 noundef %20, i64 noundef %21)
  store i32 %22, ptr %12, align 4, !tbaa !6
  call void @llvm.lifetime.start.p0(i64 4, ptr %13) #17
  %23 = load i32, ptr %11, align 4, !tbaa !6
  %24 = load i32, ptr %12, align 4, !tbaa !6
  %25 = load i64, ptr %9, align 8, !tbaa !10
  %26 = call i32 @rsock_optname_arg(i32 noundef %23, i32 noundef %24, i64 noundef %25)
  store i32 %26, ptr %13, align 4, !tbaa !6
  %27 = call i64 @rb_string_value(ptr noundef %10)
  %28 = load i64, ptr %6, align 8, !tbaa !10
  %29 = call i64 @rbimpl_intern_const(ptr noundef @sockopt_initialize.rbimpl_id, ptr noundef @.str.2) #18
  store i64 %29, ptr %14, align 8, !tbaa !10
  %30 = load i64, ptr %14, align 8, !tbaa !10
  %31 = load i32, ptr %11, align 4, !tbaa !6
  %32 = call i64 @rb_int2num_inline(i32 noundef %31)
  %33 = call i64 @rb_ivar_set(i64 noundef %28, i64 noundef %30, i64 noundef %32)
  %34 = load i64, ptr %6, align 8, !tbaa !10
  %35 = call i64 @rbimpl_intern_const(ptr noundef @sockopt_initialize.rbimpl_id.15, ptr noundef @.str.3) #18
  store i64 %35, ptr %15, align 8, !tbaa !10
  %36 = load i64, ptr %15, align 8, !tbaa !10
  %37 = load i32, ptr %12, align 4, !tbaa !6
  %38 = call i64 @rb_int2num_inline(i32 noundef %37)
  %39 = call i64 @rb_ivar_set(i64 noundef %34, i64 noundef %36, i64 noundef %38)
  %40 = load i64, ptr %6, align 8, !tbaa !10
  %41 = call i64 @rbimpl_intern_const(ptr noundef @sockopt_initialize.rbimpl_id.16, ptr noundef @.str.4) #18
  store i64 %41, ptr %16, align 8, !tbaa !10
  %42 = load i64, ptr %16, align 8, !tbaa !10
  %43 = load i32, ptr %13, align 4, !tbaa !6
  %44 = call i64 @rb_int2num_inline(i32 noundef %43)
  %45 = call i64 @rb_ivar_set(i64 noundef %40, i64 noundef %42, i64 noundef %44)
  %46 = load i64, ptr %6, align 8, !tbaa !10
  %47 = call i64 @rbimpl_intern_const(ptr noundef @sockopt_initialize.rbimpl_id.17, ptr noundef @.str.5) #18
  store i64 %47, ptr %17, align 8, !tbaa !10
  %48 = load i64, ptr %17, align 8, !tbaa !10
  %49 = load i64, ptr %10, align 8, !tbaa !10
  %50 = call i64 @rb_ivar_set(i64 noundef %46, i64 noundef %48, i64 noundef %49)
  %51 = load i64, ptr %6, align 8, !tbaa !10
  call void @llvm.lifetime.end.p0(i64 4, ptr %13) #17
  call void @llvm.lifetime.end.p0(i64 4, ptr %12) #17
  call void @llvm.lifetime.end.p0(i64 4, ptr %11) #17
  ret i64 %51
}