; Function Attrs: nounwind sspstrong uwtable
define internal noundef i64 @sockopt_initialize(i64 noundef returned %0, i64 noundef %1, i64 noundef %2, i64 noundef %3, i64 noundef %4) #0 {
  %6 = alloca i64, align 8
  store i64 %4, ptr %6, align 8, !tbaa !6
  %7 = tail call i32 @rsock_family_arg(i64 noundef %1) #6
  %8 = tail call i32 @rsock_level_arg(i32 noundef %7, i64 noundef %2) #6
  %9 = tail call i32 @rsock_optname_arg(i32 noundef %7, i32 noundef %8, i64 noundef %3) #6
  %10 = call i64 @rb_string_value(ptr noundef nonnull %6) #6
  %.pr.i = load i64, ptr @sockopt_initialize.rbimpl_id, align 8, !tbaa !6
  %.not4.i = icmp eq i64 %.pr.i, 0
  br i1 %.not4.i, label %.lr.ph.i, label %rbimpl_intern_const.exit

.lr.ph.i:                                         ; preds = %5, %.lr.ph.i
  %11 = call i64 @rb_intern2(ptr noundef nonnull @.str.2, i64 noundef 6) #6
  store i64 %11, ptr @sockopt_initialize.rbimpl_id, align 8, !tbaa !6
  %.not.i = icmp eq i64 %11, 0
  br i1 %.not.i, label %.lr.ph.i, label %rbimpl_intern_const.exit, !llvm.loop !10

rbimpl_intern_const.exit:                         ; preds = %.lr.ph.i, %5
  %.lcssa.i = phi i64 [ %.pr.i, %5 ], [ %11, %.lr.ph.i ]
  %12 = sext i32 %7 to i64
  %13 = shl nsw i64 %12, 1
  %14 = or disjoint i64 %13, 1
  %15 = call i64 @rb_ivar_set(i64 noundef %0, i64 noundef %.lcssa.i, i64 noundef %14) #6
  %.pr.i18 = load i64, ptr @sockopt_initialize.rbimpl_id.15, align 8, !tbaa !6
  %.not4.i19 = icmp eq i64 %.pr.i18, 0
  br i1 %.not4.i19, label %.lr.ph.i21, label %rbimpl_intern_const.exit23

.lr.ph.i21:                                       ; preds = %rbimpl_intern_const.exit, %.lr.ph.i21
  %16 = call i64 @rb_intern2(ptr noundef nonnull @.str.3, i64 noundef 5) #6
  store i64 %16, ptr @sockopt_initialize.rbimpl_id.15, align 8, !tbaa !6
  %.not.i22 = icmp eq i64 %16, 0
  br i1 %.not.i22, label %.lr.ph.i21, label %rbimpl_intern_const.exit23, !llvm.loop !10

rbimpl_intern_const.exit23:                       ; preds = %.lr.ph.i21, %rbimpl_intern_const.exit
  %.lcssa.i20 = phi i64 [ %.pr.i18, %rbimpl_intern_const.exit ], [ %16, %.lr.ph.i21 ]
  %17 = sext i32 %8 to i64
  %18 = shl nsw i64 %17, 1
  %19 = or disjoint i64 %18, 1
  %20 = call i64 @rb_ivar_set(i64 noundef %0, i64 noundef %.lcssa.i20, i64 noundef %19) #6
  %.pr.i24 = load i64, ptr @sockopt_initialize.rbimpl_id.16, align 8, !tbaa !6
  %.not4.i25 = icmp eq i64 %.pr.i24, 0
  br i1 %.not4.i25, label %.lr.ph.i27, label %rbimpl_intern_const.exit29

.lr.ph.i27:                                       ; preds = %rbimpl_intern_const.exit23, %.lr.ph.i27
  %21 = call i64 @rb_intern2(ptr noundef nonnull @.str.4, i64 noundef 7) #6
  store i64 %21, ptr @sockopt_initialize.rbimpl_id.16, align 8, !tbaa !6
  %.not.i28 = icmp eq i64 %21, 0
  br i1 %.not.i28, label %.lr.ph.i27, label %rbimpl_intern_const.exit29, !llvm.loop !10

rbimpl_intern_const.exit29:                       ; preds = %.lr.ph.i27, %rbimpl_intern_const.exit23
  %.lcssa.i26 = phi i64 [ %.pr.i24, %rbimpl_intern_const.exit23 ], [ %21, %.lr.ph.i27 ]
  %22 = sext i32 %9 to i64
  %23 = shl nsw i64 %22, 1
  %24 = or disjoint i64 %23, 1
  %25 = call i64 @rb_ivar_set(i64 noundef %0, i64 noundef %.lcssa.i26, i64 noundef %24) #6
  %.pr.i30 = load i64, ptr @sockopt_initialize.rbimpl_id.17, align 8, !tbaa !6
  %.not4.i31 = icmp eq i64 %.pr.i30, 0
  br i1 %.not4.i31, label %.lr.ph.i33, label %rbimpl_intern_const.exit35

.lr.ph.i33:                                       ; preds = %rbimpl_intern_const.exit29, %.lr.ph.i33
  %26 = call i64 @rb_intern2(ptr noundef nonnull @.str.5, i64 noundef 4) #6
  store i64 %26, ptr @sockopt_initialize.rbimpl_id.17, align 8, !tbaa !6
  %.not.i34 = icmp eq i64 %26, 0
  br i1 %.not.i34, label %.lr.ph.i33, label %rbimpl_intern_const.exit35, !llvm.loop !10

rbimpl_intern_const.exit35:                       ; preds = %.lr.ph.i33, %rbimpl_intern_const.exit29
  %.lcssa.i32 = phi i64 [ %.pr.i30, %rbimpl_intern_const.exit29 ], [ %26, %.lr.ph.i33 ]
  %27 = load i64, ptr %6, align 8, !tbaa !6
  %28 = call i64 @rb_ivar_set(i64 noundef %0, i64 noundef %.lcssa.i32, i64 noundef %27) #6
  ret i64 %0
}